; ModuleID = '55/334.c'
source_filename = "55/334.c"
target datalayout = "e-m:e-p270:32:32-p271:32:32-p272:64:64-i64:64-f80:128-n8:16:32:64-S128"
target triple = "x86_64-pc-linux-gnu"

@.str = private unnamed_addr constant [7 x i8] c"%d%s%d\00", align 1
@.str.1 = private unnamed_addr constant [3 x i8] c"%c\00", align 1

; Function Attrs: noinline nounwind uwtable
define dso_local void @main() #0 {
  %1 = alloca i32, align 4
  %2 = alloca i32, align 4
  %3 = alloca i32, align 4
  %4 = alloca i32, align 4
  %5 = alloca i64, align 8
  %6 = alloca [100 x i8], align 16
  store i64 0, i64* %5, align 8
  %7 = getelementptr inbounds [100 x i8], [100 x i8]* %6, i64 0, i64 0
  %8 = call i32 (i8*, ...) @__isoc99_scanf(i8* getelementptr inbounds ([7 x i8], [7 x i8]* @.str, i64 0, i64 0), i32* %1, i8* %7, i32* %2)
  %9 = getelementptr inbounds [100 x i8], [100 x i8]* %6, i64 0, i64 0
  %10 = call i64 @strlen(i8* %9) #3
  %11 = sub i64 %10, 1
  %12 = trunc i64 %11 to i32
  store i32 %12, i32* %4, align 4
  store i32 0, i32* %3, align 4
  br label %13

13:                                               ; preds = %97, %0
  %14 = load i32, i32* %3, align 4
  %15 = load i32, i32* %4, align 4
  %16 = icmp sle i32 %14, %15
  br i1 %16, label %17, label %100

17:                                               ; preds = %13
  %18 = load i32, i32* %3, align 4
  %19 = sext i32 %18 to i64
  %20 = getelementptr inbounds [100 x i8], [100 x i8]* %6, i64 0, i64 %19
  %21 = load i8, i8* %20, align 1
  %22 = sext i8 %21 to i32
  %23 = icmp sge i32 %22, 48
  br i1 %23, label %24, label %42

24:                                               ; preds = %17
  %25 = load i32, i32* %3, align 4
  %26 = sext i32 %25 to i64
  %27 = getelementptr inbounds [100 x i8], [100 x i8]* %6, i64 0, i64 %26
  %28 = load i8, i8* %27, align 1
  %29 = sext i8 %28 to i32
  %30 = icmp sle i32 %29, 57
  br i1 %30, label %31, label %42

31:                                               ; preds = %24
  %32 = load i32, i32* %3, align 4
  %33 = sext i32 %32 to i64
  %34 = getelementptr inbounds [100 x i8], [100 x i8]* %6, i64 0, i64 %33
  %35 = load i8, i8* %34, align 1
  %36 = sext i8 %35 to i32
  %37 = sub nsw i32 %36, 48
  %38 = trunc i32 %37 to i8
  %39 = load i32, i32* %3, align 4
  %40 = sext i32 %39 to i64
  %41 = getelementptr inbounds [100 x i8], [100 x i8]* %6, i64 0, i64 %40
  store i8 %38, i8* %41, align 1
  br label %96

42:                                               ; preds = %24, %17
  %43 = load i32, i32* %3, align 4
  %44 = sext i32 %43 to i64
  %45 = getelementptr inbounds [100 x i8], [100 x i8]* %6, i64 0, i64 %44
  %46 = load i8, i8* %45, align 1
  %47 = sext i8 %46 to i32
  %48 = icmp sge i32 %47, 65
  br i1 %48, label %49, label %68

49:                                               ; preds = %42
  %50 = load i32, i32* %3, align 4
  %51 = sext i32 %50 to i64
  %52 = getelementptr inbounds [100 x i8], [100 x i8]* %6, i64 0, i64 %51
  %53 = load i8, i8* %52, align 1
  %54 = sext i8 %53 to i32
  %55 = icmp sle i32 %54, 90
  br i1 %55, label %56, label %68

56:                                               ; preds = %49
  %57 = load i32, i32* %3, align 4
  %58 = sext i32 %57 to i64
  %59 = getelementptr inbounds [100 x i8], [100 x i8]* %6, i64 0, i64 %58
  %60 = load i8, i8* %59, align 1
  %61 = sext i8 %60 to i32
  %62 = sub nsw i32 %61, 65
  %63 = add nsw i32 %62, 10
  %64 = trunc i32 %63 to i8
  %65 = load i32, i32* %3, align 4
  %66 = sext i32 %65 to i64
  %67 = getelementptr inbounds [100 x i8], [100 x i8]* %6, i64 0, i64 %66
  store i8 %64, i8* %67, align 1
  br label %95

68:                                               ; preds = %49, %42
  %69 = load i32, i32* %3, align 4
  %70 = sext i32 %69 to i64
  %71 = getelementptr inbounds [100 x i8], [100 x i8]* %6, i64 0, i64 %70
  %72 = load i8, i8* %71, align 1
  %73 = sext i8 %72 to i32
  %74 = icmp sge i32 %73, 97
  br i1 %74, label %75, label %94

75:                                               ; preds = %68
  %76 = load i32, i32* %3, align 4
  %77 = sext i32 %76 to i64
  %78 = getelementptr inbounds [100 x i8], [100 x i8]* %6, i64 0, i64 %77
  %79 = load i8, i8* %78, align 1
  %80 = sext i8 %79 to i32
  %81 = icmp sle i32 %80, 122
  br i1 %81, label %82, label %94

82:                                               ; preds = %75
  %83 = load i32, i32* %3, align 4
  %84 = sext i32 %83 to i64
  %85 = getelementptr inbounds [100 x i8], [100 x i8]* %6, i64 0, i64 %84
  %86 = load i8, i8* %85, align 1
  %87 = sext i8 %86 to i32
  %88 = sub nsw i32 %87, 97
  %89 = add nsw i32 %88, 10
  %90 = trunc i32 %89 to i8
  %91 = load i32, i32* %3, align 4
  %92 = sext i32 %91 to i64
  %93 = getelementptr inbounds [100 x i8], [100 x i8]* %6, i64 0, i64 %92
  store i8 %90, i8* %93, align 1
  br label %94

94:                                               ; preds = %82, %75, %68
  br label %95

95:                                               ; preds = %94, %56
  br label %96

96:                                               ; preds = %95, %31
  br label %97

97:                                               ; preds = %96
  %98 = load i32, i32* %3, align 4
  %99 = add nsw i32 %98, 1
  store i32 %99, i32* %3, align 4
  br label %13

100:                                              ; preds = %13
  store i32 0, i32* %3, align 4
  br label %101

101:                                              ; preds = %116, %100
  %102 = load i32, i32* %3, align 4
  %103 = load i32, i32* %4, align 4
  %104 = icmp sle i32 %102, %103
  br i1 %104, label %105, label %119

105:                                              ; preds = %101
  %106 = load i64, i64* %5, align 8
  %107 = load i32, i32* %1, align 4
  %108 = sext i32 %107 to i64
  %109 = mul nsw i64 %106, %108
  %110 = load i32, i32* %3, align 4
  %111 = sext i32 %110 to i64
  %112 = getelementptr inbounds [100 x i8], [100 x i8]* %6, i64 0, i64 %111
  %113 = load i8, i8* %112, align 1
  %114 = sext i8 %113 to i64
  %115 = add nsw i64 %109, %114
  store i64 %115, i64* %5, align 8
  br label %116

116:                                              ; preds = %105
  %117 = load i32, i32* %3, align 4
  %118 = add nsw i32 %117, 1
  store i32 %118, i32* %3, align 4
  br label %101

119:                                              ; preds = %101
  store i32 0, i32* %3, align 4
  br label %120

120:                                              ; preds = %159, %119
  %121 = load i64, i64* %5, align 8
  %122 = load i32, i32* %2, align 4
  %123 = sext i32 %122 to i64
  %124 = srem i64 %121, %123
  %125 = icmp sge i64 %124, 10
  br i1 %125, label %126, label %137

126:                                              ; preds = %120
  %127 = load i64, i64* %5, align 8
  %128 = load i32, i32* %2, align 4
  %129 = sext i32 %128 to i64
  %130 = srem i64 %127, %129
  %131 = add nsw i64 %130, 65
  %132 = sub nsw i64 %131, 10
  %133 = trunc i64 %132 to i8
  %134 = load i32, i32* %3, align 4
  %135 = sext i32 %134 to i64
  %136 = getelementptr inbounds [100 x i8], [100 x i8]* %6, i64 0, i64 %135
  store i8 %133, i8* %136, align 1
  br label %147

137:                                              ; preds = %120
  %138 = load i64, i64* %5, align 8
  %139 = load i32, i32* %2, align 4
  %140 = sext i32 %139 to i64
  %141 = srem i64 %138, %140
  %142 = add nsw i64 %141, 48
  %143 = trunc i64 %142 to i8
  %144 = load i32, i32* %3, align 4
  %145 = sext i32 %144 to i64
  %146 = getelementptr inbounds [100 x i8], [100 x i8]* %6, i64 0, i64 %145
  store i8 %143, i8* %146, align 1
  br label %147

147:                                              ; preds = %137, %126
  %148 = load i64, i64* %5, align 8
  %149 = load i64, i64* %5, align 8
  %150 = load i32, i32* %2, align 4
  %151 = sext i32 %150 to i64
  %152 = srem i64 %149, %151
  %153 = sub nsw i64 %148, %152
  %154 = load i32, i32* %2, align 4
  %155 = sext i32 %154 to i64
  %156 = sdiv i64 %153, %155
  store i64 %156, i64* %5, align 8
  %157 = load i32, i32* %3, align 4
  %158 = add nsw i32 %157, 1
  store i32 %158, i32* %3, align 4
  br label %159

159:                                              ; preds = %147
  %160 = load i64, i64* %5, align 8
  %161 = icmp sgt i64 %160, 0
  br i1 %161, label %120, label %162

162:                                              ; preds = %159
  %163 = load i32, i32* %3, align 4
  %164 = add nsw i32 %163, -1
  store i32 %164, i32* %3, align 4
  br label %165

165:                                              ; preds = %175, %162
  %166 = load i32, i32* %3, align 4
  %167 = icmp sge i32 %166, 0
  br i1 %167, label %168, label %178

168:                                              ; preds = %165
  %169 = load i32, i32* %3, align 4
  %170 = sext i32 %169 to i64
  %171 = getelementptr inbounds [100 x i8], [100 x i8]* %6, i64 0, i64 %170
  %172 = load i8, i8* %171, align 1
  %173 = sext i8 %172 to i32
  %174 = call i32 (i8*, ...) @printf(i8* getelementptr inbounds ([3 x i8], [3 x i8]* @.str.1, i64 0, i64 0), i32 %173)
  br label %175

175:                                              ; preds = %168
  %176 = load i32, i32* %3, align 4
  %177 = add nsw i32 %176, -1
  store i32 %177, i32* %3, align 4
  br label %165

178:                                              ; preds = %165
  ret void
}

declare dso_local i32 @__isoc99_scanf(i8*, ...) #1

; Function Attrs: nounwind readonly
declare dso_local i64 @strlen(i8*) #2

declare dso_local i32 @printf(i8*, ...) #1


!llvm.module.flags = !{!0}
!llvm.ident = !{!1}

!0 = !{i32 1, !"wchar_size", i32 4}
!1 = !{!"clang version 10.0.0-4ubuntu1 "}
